; Function Attrs: nounwind uwtable
define internal void @data_device_handle_data_offer(ptr noundef %0, ptr readnone captures(none) %1, ptr noundef %2) #0 {
  %4 = tail call noalias dereferenceable_or_null(48) ptr @SDL_calloc_REAL(i64 noundef 1, i64 noundef 48) #14
  %.not = icmp eq ptr %4, null
  br i1 %.not, label %22, label %5

5:                                                ; preds = %3
  %6 = getelementptr inbounds nuw i8, ptr %0, i64 8
  %7 = load ptr, ptr %6, align 8
  %8 = load ptr, ptr %7, align 8
  %9 = getelementptr inbounds nuw i8, ptr %8, i64 272
  store ptr %7, ptr %9, align 8
  store ptr %2, ptr %4, align 8
  %10 = getelementptr inbounds nuw i8, ptr %4, i64 24
  store ptr %0, ptr %10, align 8
  %11 = getelementptr inbounds nuw i8, ptr %4, i64 40
  store i32 -1, ptr %11, align 8
  %12 = load ptr, ptr @WAYLAND_wl_list_init, align 8
  %13 = getelementptr inbounds nuw i8, ptr %4, i64 8
  tail call void %12(ptr noundef nonnull %13) #12
  %14 = load ptr, ptr @WAYLAND_wl_proxy_set_user_data, align 8
  tail call void %14(ptr noundef %2, ptr noundef nonnull %4) #12
  %15 = load ptr, ptr @WAYLAND_wl_proxy_add_listener, align 8
  %16 = tail call i32 %15(ptr noundef %2, ptr noundef nonnull @data_offer_listener, ptr noundef nonnull %4) #12
  %.not17 = icmp eq ptr %2, null
  br i1 %.not17, label %20, label %17

17:                                               ; preds = %5
  %18 = load ptr, ptr @WAYLAND_wl_proxy_get_id, align 8
  %19 = tail call i32 %18(ptr noundef nonnull %2) #12
  br label %20

20:                                               ; preds = %5, %17
  %21 = phi i32 [ %19, %17 ], [ -1, %5 ]
  tail call void (i32, ptr, ...) @SDL_LogTrace_REAL(i32 noundef 7, ptr noundef nonnull @.str.7, i32 noundef %21) #12
  br label %22

22:                                               ; preds = %20, %3
  ret void
}